target datalayout = "e-m:e-p270:32:32-p271:32:32-p272:64:64-i64:64-i128:128-f80:128-n8:16:32:64-S128"
target triple = "x86_64-pc-linux-gnu"

%"class.cvtest::TS" = type { ptr, %"class.std::vector", %"class.std::vector", %"struct.cvtest::TestInfo", %"class.std::__cxx11::basic_string", %"struct.cvtest::TSParams", [4 x %"class.std::__cxx11::basic_string"] }
%"class.std::vector" = type { %"struct.std::_Vector_base" }
%"struct.std::_Vector_base" = type { %"struct.std::_Vector_base<std::__cxx11::basic_string<char>, std::allocator<std::__cxx11::basic_string<char>>>::_Vector_impl" }
%"struct.std::_Vector_base<std::__cxx11::basic_string<char>, std::allocator<std::__cxx11::basic_string<char>>>::_Vector_impl" = type { %"struct.std::_Vector_base<std::__cxx11::basic_string<char>, std::allocator<std::__cxx11::basic_string<char>>>::_Vector_impl_data" }
%"struct.std::_Vector_base<std::__cxx11::basic_string<char>, std::allocator<std::__cxx11::basic_string<char>>>::_Vector_impl_data" = type { ptr, ptr, ptr }
%"struct.cvtest::TestInfo" = type <{ ptr, i32, [4 x i8], i64, i64, i32, [4 x i8] }>
%"class.std::__cxx11::basic_string" = type { %"struct.std::__cxx11::basic_string<char>::_Alloc_hider", i64, %union.anon }
%"struct.std::__cxx11::basic_string<char>::_Alloc_hider" = type { ptr }
%union.anon = type { i64, [8 x i8] }
%"struct.cvtest::TSParams" = type { i64, i8, double }

; Function Attrs: mustprogress nounwind uwtable
define hidden void @_ZN6cvtest2TS20set_failed_test_infoEi(ptr noundef nonnull align 8 dereferenceable(280) %0, i32 noundef %1) unnamed_addr #7 align 2 {
  %3 = alloca ptr, align 8
  %4 = alloca i32, align 4
  store ptr %0, ptr %3, align 8, !tbaa !63
  store i32 %1, ptr %4, align 4, !tbaa !8
  %5 = load ptr, ptr %3, align 8
  %6 = getelementptr inbounds nuw %"class.cvtest::TS", ptr %5, i32 0, i32 3
  %7 = getelementptr inbounds nuw %"struct.cvtest::TestInfo", ptr %6, i32 0, i32 1
  %8 = load i32, ptr %7, align 8, !tbaa !64
  %9 = icmp sge i32 %8, 0
  br i1 %9, label %10, label %14

10:                                               ; preds = %2
  %11 = load i32, ptr %4, align 4, !tbaa !8
  %12 = getelementptr inbounds nuw %"class.cvtest::TS", ptr %5, i32 0, i32 3
  %13 = getelementptr inbounds nuw %"struct.cvtest::TestInfo", ptr %12, i32 0, i32 1
  store i32 %11, ptr %13, align 8, !tbaa !64
  br label %14

14:                                               ; preds = %10, %2
  ret void
}