; Function Attrs: mustprogress nofree norecurse nosync nounwind willreturn memory(argmem: readwrite) uwtable
define hidden void @_ZN6cvtest2TS20set_failed_test_infoEi(ptr noundef nonnull align 8 captures(none) dereferenceable(280) %0, i32 noundef %1) unnamed_addr #28 align 2 {
  %3 = getelementptr inbounds nuw i8, ptr %0, i64 64
  %4 = load i32, ptr %3, align 8, !tbaa !38
  %5 = icmp sgt i32 %4, -1
  br i1 %5, label %6, label %7

6:                                                ; preds = %2
  store i32 %1, ptr %3, align 8, !tbaa !38
  br label %7

7:                                                ; preds = %6, %2
  ret void
}